(dp0
Vengine
p1
Vpdflatex
p2
sVpackages
p3
c__builtin__
set
p4
((lp5
Vgeometry
p6
aVimport
p7
aVinputenc
p8
atp9
Rp10
sVfiles_with_guttermarks
p11
g4
((lp12
V/Users/sophie/Documents/GitHub/test/resume.tex
p13
aS'resume.tex'
p14
atp15
Rp16
sVsynctex
p17
I01
s.